(dp0
S'phi'
p1
S'0 2 2'
p2
sS'format'
p3
S'MAR345'
p4
sS'wavelength'
p5
S'0.7107'
p6
sS'omega'
p7
S'0 0 0'
p8
sS'distance'
p9
S'241'
p10
sS'chi'
p11
S'0'
p12
sS'comfile'
p13
S'/home/mar345/log/mar.com'
p14
sS'mode'
p15
S'4'
p16
sS'time'
p17
S'120'
p18
sS'directory'
p19
S'/home/mar345/data/test_autoscript'
p20
sS'theta'
p21
g12
sS'root'
p22
S'test_autoscript_001'
p23
s.